target datalayout = "e-m:e-p270:32:32-p271:32:32-p272:64:64-i64:64-i128:128-f80:128-n8:16:32:64-S128"
target triple = "x86_64-pc-linux-gnu"

%struct.CodedBitstreamContext = type { ptr, ptr, ptr, ptr, i32, i32, i32, ptr, ptr, ptr, ptr, i64 }
%struct.CodedBitstreamAV1Context = type { ptr, ptr, ptr, i32, ptr, ptr, i64, i32, i32, i32, i32, i32, i32, i32, i32, i32, i32, i32, i32, i32, i32, i32, i32, [8 x i32], [8 x i32], [8 x %struct.AV1ReferenceFrameState], i32, i32, [8 x i8], [2 x i8], [8 x [8 x i8]], [8 x [8 x i16]] }
%struct.AV1ReferenceFrameState = type { i32, i32, i32, i32, i32, i32, i32, i32, i32, i32, i32, i32, [8 x i32], [8 x i8], [2 x i8], [8 x [8 x i8]], [8 x [8 x i16]] }
%struct.AV1RawSequenceHeader = type { i8, i8, i8, i8, i8, i8, i8, %struct.AV1RawTimingInfo, %struct.AV1RawDecoderModelInfo, [32 x i16], [32 x i8], [32 x i8], [32 x i8], [32 x i32], [32 x i32], [32 x i8], [32 x i8], [32 x i8], i8, i8, i16, i16, i8, i8, i8, i8, i8, i8, i8, i8, i8, i8, i8, i8, i8, i8, i8, i8, i8, i8, i8, i8, i8, %struct.AV1RawColorConfig, i8 }
%struct.AV1RawTimingInfo = type { i32, i32, i8, i32 }
%struct.AV1RawDecoderModelInfo = type { i8, i32, i8, i8 }
%struct.AV1RawColorConfig = type { i8, i8, i8, i8, i8, i8, i8, i8, i8, i8, i8, i8 }
%struct.AV1RawFrameHeader = type { i8, i8, i32, i32, i8, i8, i8, i8, i8, i8, i8, i32, i8, i8, i8, [32 x i32], i8, i16, i16, i8, i8, i8, i16, i16, [7 x i8], i8, i8, [8 x i8], i8, i8, i8, [7 x i8], [7 x i32], i8, i8, i8, i8, i8, i8, i8, i8, i8, [64 x i8], [64 x i8], [64 x i8], [64 x i8], i16, i8, i16, i16, i8, i8, i8, i8, i8, i8, i8, i8, i8, i8, i8, i8, i8, i8, i8, [8 x [8 x i8]], [8 x [8 x i16]], i8, i8, i8, i8, i8, [4 x i8], i8, i8, i8, [8 x i8], [8 x i8], [2 x i8], [2 x i8], i8, i8, [8 x i8], [8 x i8], [8 x i8], [8 x i8], [3 x i8], i8, i8, i8, i8, i8, i8, i8, [8 x i8], [8 x i8], [8 x i8], [8 x [6 x i32]], %struct.AV1RawFilmGrainParams }
%struct.AV1RawFilmGrainParams = type { i8, i16, i8, i8, i8, [14 x i8], [14 x i8], i8, i8, [10 x i8], [10 x i8], i8, [10 x i8], [10 x i8], i8, i8, [24 x i8], [25 x i8], [25 x i8], i8, i8, i8, i8, i16, i8, i8, i16, i8, i8 }

@.str.142 = private unnamed_addr constant [20 x i8] c"frame_width_minus_1\00", align 1
@.str.143 = private unnamed_addr constant [21 x i8] c"frame_height_minus_1\00", align 1
@.str.317 = private unnamed_addr constant [59 x i8] c"%s does not match inferred value: %ld, but should be %ld.\0A\00", align 1

; Function Attrs: nounwind uwtable
define internal i32 @cbs_av1_write_frame_size(ptr noundef %0, ptr noundef %1, ptr noundef %2) #0 {
  %4 = alloca i32, align 4
  %5 = alloca ptr, align 8
  %6 = alloca ptr, align 8
  %7 = alloca ptr, align 8
  %8 = alloca ptr, align 8
  %9 = alloca ptr, align 8
  %10 = alloca i32, align 4
  %11 = alloca i32, align 4
  store ptr %0, ptr %5, align 8, !tbaa !4
  store ptr %1, ptr %6, align 8, !tbaa !71
  store ptr %2, ptr %7, align 8, !tbaa !159
  call void @llvm.lifetime.start.p0(i64 8, ptr %8) #8
  %12 = load ptr, ptr %5, align 8, !tbaa !4
  %13 = getelementptr inbounds nuw %struct.CodedBitstreamContext, ptr %12, i32 0, i32 2
  %14 = load ptr, ptr %13, align 8, !tbaa !36
  store ptr %14, ptr %8, align 8, !tbaa !37
  call void @llvm.lifetime.start.p0(i64 8, ptr %9) #8
  %15 = load ptr, ptr %8, align 8, !tbaa !37
  %16 = getelementptr inbounds nuw %struct.CodedBitstreamAV1Context, ptr %15, i32 0, i32 1
  %17 = load ptr, ptr %16, align 8, !tbaa !67
  store ptr %17, ptr %9, align 8, !tbaa !58
  call void @llvm.lifetime.start.p0(i64 4, ptr %10) #8
  %18 = load ptr, ptr %7, align 8, !tbaa !159
  %19 = getelementptr inbounds nuw %struct.AV1RawFrameHeader, ptr %18, i32 0, i32 12
  %20 = load i8, ptr %19, align 4, !tbaa !262
  %21 = icmp ne i8 %20, 0
  br i1 %21, label %22, label %69

22:                                               ; preds = %3
  br label %23

23:                                               ; preds = %22
  br label %24

24:                                               ; preds = %23
  %25 = load ptr, ptr %5, align 8, !tbaa !4
  %26 = load ptr, ptr %6, align 8, !tbaa !71
  %27 = load ptr, ptr %9, align 8, !tbaa !58
  %28 = getelementptr inbounds nuw %struct.AV1RawSequenceHeader, ptr %27, i32 0, i32 18
  %29 = load i8, ptr %28, align 4, !tbaa !133
  %30 = zext i8 %29 to i32
  %31 = add nsw i32 %30, 1
  %32 = load ptr, ptr %7, align 8, !tbaa !159
  %33 = getelementptr inbounds nuw %struct.AV1RawFrameHeader, ptr %32, i32 0, i32 17
  %34 = load i16, ptr %33, align 2, !tbaa !251
  %35 = zext i16 %34 to i32
  %36 = call i32 @ff_cbs_write_simple_unsigned(ptr noundef %25, ptr noundef %26, i32 noundef %31, ptr noundef @.str.142, i32 noundef %35)
  store i32 %36, ptr %10, align 4, !tbaa !11
  %37 = load i32, ptr %10, align 4, !tbaa !11
  %38 = icmp slt i32 %37, 0
  br i1 %38, label %39, label %41

39:                                               ; preds = %24
  %40 = load i32, ptr %10, align 4, !tbaa !11
  store i32 %40, ptr %4, align 4
  store i32 1, ptr %11, align 4
  br label %147

41:                                               ; preds = %24
  br label %42

42:                                               ; preds = %41
  br label %43

43:                                               ; preds = %42
  br label %44

44:                                               ; preds = %43
  br label %45

45:                                               ; preds = %44
  br label %46

46:                                               ; preds = %45
  br label %47

47:                                               ; preds = %46
  %48 = load ptr, ptr %5, align 8, !tbaa !4
  %49 = load ptr, ptr %6, align 8, !tbaa !71
  %50 = load ptr, ptr %9, align 8, !tbaa !58
  %51 = getelementptr inbounds nuw %struct.AV1RawSequenceHeader, ptr %50, i32 0, i32 19
  %52 = load i8, ptr %51, align 1, !tbaa !134
  %53 = zext i8 %52 to i32
  %54 = add nsw i32 %53, 1
  %55 = load ptr, ptr %7, align 8, !tbaa !159
  %56 = getelementptr inbounds nuw %struct.AV1RawFrameHeader, ptr %55, i32 0, i32 18
  %57 = load i16, ptr %56, align 4, !tbaa !252
  %58 = zext i16 %57 to i32
  %59 = call i32 @ff_cbs_write_simple_unsigned(ptr noundef %48, ptr noundef %49, i32 noundef %54, ptr noundef @.str.143, i32 noundef %58)
  store i32 %59, ptr %10, align 4, !tbaa !11
  %60 = load i32, ptr %10, align 4, !tbaa !11
  %61 = icmp slt i32 %60, 0
  br i1 %61, label %62, label %64

62:                                               ; preds = %47
  %63 = load i32, ptr %10, align 4, !tbaa !11
  store i32 %63, ptr %4, align 4
  store i32 1, ptr %11, align 4
  br label %147

64:                                               ; preds = %47
  br label %65

65:                                               ; preds = %64
  br label %66

66:                                               ; preds = %65
  br label %67

67:                                               ; preds = %66
  br label %68

68:                                               ; preds = %67
  br label %120

69:                                               ; preds = %3
  br label %70

70:                                               ; preds = %69
  %71 = load ptr, ptr %7, align 8, !tbaa !159
  %72 = getelementptr inbounds nuw %struct.AV1RawFrameHeader, ptr %71, i32 0, i32 17
  %73 = load i16, ptr %72, align 2, !tbaa !251
  %74 = zext i16 %73 to i32
  %75 = load ptr, ptr %9, align 8, !tbaa !58
  %76 = getelementptr inbounds nuw %struct.AV1RawSequenceHeader, ptr %75, i32 0, i32 20
  %77 = load i16, ptr %76, align 2, !tbaa !135
  %78 = zext i16 %77 to i32
  %79 = icmp ne i32 %74, %78
  br i1 %79, label %80, label %92

80:                                               ; preds = %70
  %81 = load ptr, ptr %5, align 8, !tbaa !4
  %82 = getelementptr inbounds nuw %struct.CodedBitstreamContext, ptr %81, i32 0, i32 0
  %83 = load ptr, ptr %82, align 8, !tbaa !26
  %84 = load ptr, ptr %7, align 8, !tbaa !159
  %85 = getelementptr inbounds nuw %struct.AV1RawFrameHeader, ptr %84, i32 0, i32 17
  %86 = load i16, ptr %85, align 2, !tbaa !251
  %87 = zext i16 %86 to i64
  %88 = load ptr, ptr %9, align 8, !tbaa !58
  %89 = getelementptr inbounds nuw %struct.AV1RawSequenceHeader, ptr %88, i32 0, i32 20
  %90 = load i16, ptr %89, align 2, !tbaa !135
  %91 = zext i16 %90 to i64
  call void (ptr, i32, ptr, ...) @av_log(ptr noundef %83, i32 noundef 16, ptr noundef @.str.317, ptr noundef @.str.142, i64 noundef %87, i64 noundef %91)
  store i32 -1094995529, ptr %4, align 4
  store i32 1, ptr %11, align 4
  br label %147

92:                                               ; preds = %70
  br label %93

93:                                               ; preds = %92
  br label %94

94:                                               ; preds = %93
  br label %95

95:                                               ; preds = %94
  %96 = load ptr, ptr %7, align 8, !tbaa !159
  %97 = getelementptr inbounds nuw %struct.AV1RawFrameHeader, ptr %96, i32 0, i32 18
  %98 = load i16, ptr %97, align 4, !tbaa !252
  %99 = zext i16 %98 to i32
  %100 = load ptr, ptr %9, align 8, !tbaa !58
  %101 = getelementptr inbounds nuw %struct.AV1RawSequenceHeader, ptr %100, i32 0, i32 21
  %102 = load i16, ptr %101, align 4, !tbaa !136
  %103 = zext i16 %102 to i32
  %104 = icmp ne i32 %99, %103
  br i1 %104, label %105, label %117

105:                                              ; preds = %95
  %106 = load ptr, ptr %5, align 8, !tbaa !4
  %107 = getelementptr inbounds nuw %struct.CodedBitstreamContext, ptr %106, i32 0, i32 0
  %108 = load ptr, ptr %107, align 8, !tbaa !26
  %109 = load ptr, ptr %7, align 8, !tbaa !159
  %110 = getelementptr inbounds nuw %struct.AV1RawFrameHeader, ptr %109, i32 0, i32 18
  %111 = load i16, ptr %110, align 4, !tbaa !252
  %112 = zext i16 %111 to i64
  %113 = load ptr, ptr %9, align 8, !tbaa !58
  %114 = getelementptr inbounds nuw %struct.AV1RawSequenceHeader, ptr %113, i32 0, i32 21
  %115 = load i16, ptr %114, align 4, !tbaa !136
  %116 = zext i16 %115 to i64
  call void (ptr, i32, ptr, ...) @av_log(ptr noundef %108, i32 noundef 16, ptr noundef @.str.317, ptr noundef @.str.143, i64 noundef %112, i64 noundef %116)
  store i32 -1094995529, ptr %4, align 4
  store i32 1, ptr %11, align 4
  br label %147

117:                                              ; preds = %95
  br label %118

118:                                              ; preds = %117
  br label %119

119:                                              ; preds = %118
  br label %120

120:                                              ; preds = %119, %68
  %121 = load ptr, ptr %7, align 8, !tbaa !159
  %122 = getelementptr inbounds nuw %struct.AV1RawFrameHeader, ptr %121, i32 0, i32 17
  %123 = load i16, ptr %122, align 2, !tbaa !251
  %124 = zext i16 %123 to i32
  %125 = add nsw i32 %124, 1
  %126 = load ptr, ptr %8, align 8, !tbaa !37
  %127 = getelementptr inbounds nuw %struct.CodedBitstreamAV1Context, ptr %126, i32 0, i32 12
  store i32 %125, ptr %127, align 4, !tbaa !241
  %128 = load ptr, ptr %7, align 8, !tbaa !159
  %129 = getelementptr inbounds nuw %struct.AV1RawFrameHeader, ptr %128, i32 0, i32 18
  %130 = load i16, ptr %129, align 4, !tbaa !252
  %131 = zext i16 %130 to i32
  %132 = add nsw i32 %131, 1
  %133 = load ptr, ptr %8, align 8, !tbaa !37
  %134 = getelementptr inbounds nuw %struct.CodedBitstreamAV1Context, ptr %133, i32 0, i32 13
  store i32 %132, ptr %134, align 8, !tbaa !243
  br label %135

135:                                              ; preds = %120
  %136 = load ptr, ptr %5, align 8, !tbaa !4
  %137 = load ptr, ptr %6, align 8, !tbaa !71
  %138 = load ptr, ptr %7, align 8, !tbaa !159
  %139 = call i32 @cbs_av1_write_superres_params(ptr noundef %136, ptr noundef %137, ptr noundef %138)
  store i32 %139, ptr %10, align 4, !tbaa !11
  %140 = load i32, ptr %10, align 4, !tbaa !11
  %141 = icmp slt i32 %140, 0
  br i1 %141, label %142, label %144

142:                                              ; preds = %135
  %143 = load i32, ptr %10, align 4, !tbaa !11
  store i32 %143, ptr %4, align 4
  store i32 1, ptr %11, align 4
  br label %147

144:                                              ; preds = %135
  br label %145

145:                                              ; preds = %144
  br label %146

146:                                              ; preds = %145
  store i32 0, ptr %4, align 4
  store i32 1, ptr %11, align 4
  br label %147

147:                                              ; preds = %146, %142, %105, %80, %62, %39
  call void @llvm.lifetime.end.p0(i64 4, ptr %10) #8
  call void @llvm.lifetime.end.p0(i64 8, ptr %9) #8
  call void @llvm.lifetime.end.p0(i64 8, ptr %8) #8
  %148 = load i32, ptr %4, align 4
  ret i32 %148
}