; Function Attrs: nounwind uwtable
define internal fastcc range(i32 -2147483648, 1) i32 @cbs_av1_write_frame_size(ptr noundef %0, ptr noundef %1, ptr noundef readonly captures(none) %2) unnamed_addr #0 {
  %4 = getelementptr inbounds nuw i8, ptr %0, i64 16
  %5 = load ptr, ptr %4, align 8, !tbaa !33
  %6 = getelementptr inbounds nuw i8, ptr %5, i64 8
  %7 = load ptr, ptr %6, align 8, !tbaa !60
  %8 = getelementptr inbounds nuw i8, ptr %2, i64 24
  %9 = load i8, ptr %8, align 4, !tbaa !252
  %.not = icmp eq i8 %9, 0
  br i1 %.not, label %30, label %10

10:                                               ; preds = %3
  %11 = getelementptr inbounds nuw i8, ptr %7, i64 548
  %12 = load i8, ptr %11, align 4, !tbaa !101
  %13 = zext i8 %12 to i32
  %14 = add nuw nsw i32 %13, 1
  %15 = getelementptr inbounds nuw i8, ptr %2, i64 158
  %16 = load i16, ptr %15, align 2, !tbaa !242
  %17 = zext i16 %16 to i32
  %18 = tail call i32 @ff_cbs_write_simple_unsigned(ptr noundef nonnull %0, ptr noundef %1, i32 noundef %14, ptr noundef nonnull @.str.142, i32 noundef %17) #8
  %19 = icmp slt i32 %18, 0
  br i1 %19, label %58, label %20

20:                                               ; preds = %10
  %21 = getelementptr inbounds nuw i8, ptr %7, i64 549
  %22 = load i8, ptr %21, align 1, !tbaa !102
  %23 = zext i8 %22 to i32
  %24 = add nuw nsw i32 %23, 1
  %25 = getelementptr inbounds nuw i8, ptr %2, i64 160
  %26 = load i16, ptr %25, align 4, !tbaa !243
  %27 = zext i16 %26 to i32
  %28 = tail call i32 @ff_cbs_write_simple_unsigned(ptr noundef nonnull %0, ptr noundef %1, i32 noundef %24, ptr noundef nonnull @.str.143, i32 noundef %27) #8
  %29 = icmp slt i32 %28, 0
  br i1 %29, label %58, label %._crit_edge

._crit_edge:                                      ; preds = %20
  %.pre = load i16, ptr %15, align 2, !tbaa !242
  %.pre40 = load i16, ptr %25, align 4, !tbaa !243
  br label %48

30:                                               ; preds = %3
  %31 = getelementptr inbounds nuw i8, ptr %2, i64 158
  %32 = load i16, ptr %31, align 2, !tbaa !242
  %33 = getelementptr inbounds nuw i8, ptr %7, i64 550
  %34 = load i16, ptr %33, align 2, !tbaa !103
  %.not37 = icmp eq i16 %32, %34
  br i1 %.not37, label %39, label %35

35:                                               ; preds = %30
  %36 = load ptr, ptr %0, align 8, !tbaa !19
  %37 = zext i16 %32 to i64
  %38 = zext i16 %34 to i64
  tail call void (ptr, i32, ptr, ...) @av_log(ptr noundef %36, i32 noundef 16, ptr noundef nonnull @.str.317, ptr noundef nonnull @.str.142, i64 noundef %37, i64 noundef %38) #8
  br label %58

39:                                               ; preds = %30
  %40 = getelementptr inbounds nuw i8, ptr %2, i64 160
  %41 = load i16, ptr %40, align 4, !tbaa !243
  %42 = getelementptr inbounds nuw i8, ptr %7, i64 552
  %43 = load i16, ptr %42, align 4, !tbaa !104
  %.not38 = icmp eq i16 %41, %43
  br i1 %.not38, label %48, label %44

44:                                               ; preds = %39
  %45 = load ptr, ptr %0, align 8, !tbaa !19
  %46 = zext i16 %41 to i64
  %47 = zext i16 %43 to i64
  tail call void (ptr, i32, ptr, ...) @av_log(ptr noundef %45, i32 noundef 16, ptr noundef nonnull @.str.317, ptr noundef nonnull @.str.143, i64 noundef %46, i64 noundef %47) #8
  br label %58

48:                                               ; preds = %._crit_edge, %39
  %49 = phi i16 [ %.pre40, %._crit_edge ], [ %41, %39 ]
  %50 = phi i16 [ %.pre, %._crit_edge ], [ %32, %39 ]
  %51 = zext i16 %50 to i32
  %52 = add nuw nsw i32 %51, 1
  %53 = getelementptr inbounds nuw i8, ptr %5, i64 76
  store i32 %52, ptr %53, align 4, !tbaa !231
  %54 = zext i16 %49 to i32
  %55 = add nuw nsw i32 %54, 1
  %56 = getelementptr inbounds nuw i8, ptr %5, i64 80
  store i32 %55, ptr %56, align 8, !tbaa !233
  %57 = tail call fastcc i32 @cbs_av1_write_superres_params(ptr noundef nonnull %0, ptr noundef %1, ptr noundef nonnull %2)
  br label %58

58:                                               ; preds = %48, %20, %10, %44, %35
  %.0 = phi i32 [ -1094995529, %35 ], [ -1094995529, %44 ], [ %18, %10 ], [ %28, %20 ], [ %57, %48 ]
  ret i32 %.0
}